target datalayout = "e-m:e-p270:32:32-p271:32:32-p272:64:64-i64:64-i128:128-f80:128-n8:16:32:64-S128"
target triple = "x86_64-pc-linux-gnu"

@.str.20 = private unnamed_addr constant [41 x i8] c"Error: json_object_get_string() for %s.\0A\00", align 1
@.str.21 = private unnamed_addr constant [44 x i8] c"Error: json_object_object_get_ex() for %s.\0A\00", align 1

; Function Attrs: nounwind uwtable
define dso_local ptr @presigned_get_string(ptr noundef %0, ptr noundef %1) #0 {
  %3 = alloca ptr, align 8
  %4 = alloca ptr, align 8
  %5 = alloca ptr, align 8
  %6 = alloca ptr, align 8
  store ptr %0, ptr %3, align 8
  store ptr %1, ptr %4, align 8
  store ptr null, ptr %5, align 8
  store ptr null, ptr %6, align 8
  %7 = load ptr, ptr %3, align 8
  %8 = load ptr, ptr %4, align 8
  %9 = call i32 @json_object_object_get_ex(ptr noundef %7, ptr noundef %8, ptr noundef %5)
  %10 = icmp ne i32 %9, 0
  br i1 %10, label %11, label %20

11:                                               ; preds = %2
  %12 = load ptr, ptr %5, align 8
  %13 = call ptr @json_object_get_string(ptr noundef %12)
  store ptr %13, ptr %6, align 8
  %14 = load ptr, ptr %6, align 8
  %15 = icmp eq ptr %14, null
  br i1 %15, label %16, label %19

16:                                               ; preds = %11
  %17 = load ptr, ptr %4, align 8
  %18 = call i32 (i32, ptr, ...) @logg(i32 noundef 5, ptr noundef @.str.20, ptr noundef %17)
  br label %19

19:                                               ; preds = %16, %11
  br label %23

20:                                               ; preds = %2
  %21 = load ptr, ptr %4, align 8
  %22 = call i32 (i32, ptr, ...) @logg(i32 noundef 5, ptr noundef @.str.21, ptr noundef %21)
  br label %23

23:                                               ; preds = %20, %19
  %24 = load ptr, ptr %6, align 8
  ret ptr %24
}