; Function Attrs: nounwind uwtable
define dso_local ptr @presigned_get_string(ptr noundef %0, ptr noundef %1) local_unnamed_addr #4 {
  %3 = alloca ptr, align 8
  store ptr null, ptr %3, align 8
  %4 = call i32 @json_object_object_get_ex(ptr noundef %0, ptr noundef %1, ptr noundef nonnull %3) #12
  %.not = icmp eq i32 %4, 0
  br i1 %.not, label %.sink.split, label %5

5:                                                ; preds = %2
  %6 = load ptr, ptr %3, align 8
  %7 = call ptr @json_object_get_string(ptr noundef %6) #12
  %8 = icmp eq ptr %7, null
  br i1 %8, label %.sink.split, label %10

.sink.split:                                      ; preds = %2, %5
  %.str.20.sink = phi ptr [ @.str.20, %5 ], [ @.str.21, %2 ]
  %9 = call i32 (i32, ptr, ...) @logg(i32 noundef 5, ptr noundef nonnull %.str.20.sink, ptr noundef %1) #12
  br label %10

10:                                               ; preds = %.sink.split, %5
  %.0 = phi ptr [ %7, %5 ], [ null, %.sink.split ]
  ret ptr %.0
}